target datalayout = "e-m:e-p270:32:32-p271:32:32-p272:64:64-i64:64-i128:128-f80:128-n8:16:32:64-S128"
target triple = "x86_64-unknown-linux-gnu"

%"class.QuantLib::Date" = type { i64 }

; Function Attrs: inlinehint mustprogress uwtable
define linkonce_odr noundef i32 @_ZNK8QuantLib4Date9dayOfYearEv(ptr noundef nonnull align 8 dereferenceable(8) %this) #6 comdat align 2 {
entry:
  %this.addr = alloca ptr, align 8
  store ptr %this, ptr %this.addr, align 8, !tbaa !3
  %this1 = load ptr, ptr %this.addr, align 8
  %serialNumber_ = getelementptr inbounds nuw %"class.QuantLib::Date", ptr %this1, i32 0, i32 0
  %0 = load i64, ptr %serialNumber_, align 8, !tbaa !21
  %call = call noundef i32 @_ZNK8QuantLib4Date4yearEv(ptr noundef nonnull align 8 dereferenceable(8) %this1)
  %call2 = call noundef i64 @_ZN8QuantLib4Date10yearOffsetEi(i32 noundef %call)
  %sub = sub nsw i64 %0, %call2
  %conv = trunc i64 %sub to i32
  ret i32 %conv
}

; Function Attrs: inlinehint mustprogress nounwind uwtable
define linkonce_odr noundef i32 @_ZNK8QuantLib4Date7weekdayEv(ptr noundef nonnull align 8 dereferenceable(8) %this) #4 comdat align 2 {
entry:
  %this.addr = alloca ptr, align 8
  %w = alloca i32, align 4
  store ptr %this, ptr %this.addr, align 8, !tbaa !3
  %this1 = load ptr, ptr %this.addr, align 8
  call void @llvm.lifetime.start.p0(i64 4, ptr %w) #2
  %serialNumber_ = getelementptr inbounds nuw %"class.QuantLib::Date", ptr %this1, i32 0, i32 0
  %0 = load i64, ptr %serialNumber_, align 8, !tbaa !21
  %rem = srem i64 %0, 7
  %conv = trunc i64 %rem to i32
  store i32 %conv, ptr %w, align 4, !tbaa !17
  %1 = load i32, ptr %w, align 4, !tbaa !17
  %cmp = icmp eq i32 %1, 0
  br i1 %cmp, label %cond.true, label %cond.false

cond.true:                                        ; preds = %entry
  br label %cond.end

cond.false:                                       ; preds = %entry
  %2 = load i32, ptr %w, align 4, !tbaa !17
  br label %cond.end

cond.end:                                         ; preds = %cond.false, %cond.true
  %cond = phi i32 [ 7, %cond.true ], [ %2, %cond.false ]
  call void @llvm.lifetime.end.p0(i64 4, ptr %w) #2
  ret i32 %cond
}

; Function Attrs: inlinehint mustprogress uwtable
define linkonce_odr noundef i32 @_ZNK8QuantLib4Date10dayOfMonthEv(ptr noundef nonnull align 8 dereferenceable(8) %this) #6 comdat align 2 {
entry:
  %this.addr = alloca ptr, align 8
  store ptr %this, ptr %this.addr, align 8, !tbaa !3
  %this1 = load ptr, ptr %this.addr, align 8
  %call = call noundef i32 @_ZNK8QuantLib4Date9dayOfYearEv(ptr noundef nonnull align 8 dereferenceable(8) %this1)
  %call2 = call noundef i32 @_ZNK8QuantLib4Date5monthEv(ptr noundef nonnull align 8 dereferenceable(8) %this1)
  %call3 = call noundef i32 @_ZNK8QuantLib4Date4yearEv(ptr noundef nonnull align 8 dereferenceable(8) %this1)
  %call4 = call noundef zeroext i1 @_ZN8QuantLib4Date6isLeapEi(i32 noundef %call3)
  %call5 = call noundef i32 @_ZN8QuantLib4Date11monthOffsetENS_5MonthEb(i32 noundef %call2, i1 noundef zeroext %call4)
  %sub = sub nsw i32 %call, %call5
  ret i32 %sub
}

; Function Attrs: mustprogress uwtable
define noundef zeroext i1 @_ZNK8QuantLib10SouthKorea7KrxImpl13isBusinessDayERKNS_4DateE(ptr noundef nonnull align 8 dereferenceable(104) %this, ptr noundef nonnull align 8 dereferenceable(8) %date) unnamed_addr #0 align 2 {
entry:
  %retval = alloca i1, align 1
  %this.addr = alloca ptr, align 8
  %date.addr = alloca ptr, align 8
  %d = alloca i32, align 4
  %w = alloca i32, align 4
  %m = alloca i32, align 4
  %y = alloca i32, align 4
  %cleanup.dest.slot = alloca i32, align 4
  store ptr %this, ptr %this.addr, align 8, !tbaa !3
  store ptr %date, ptr %date.addr, align 8, !tbaa !3
  %this1 = load ptr, ptr %this.addr, align 8
  %0 = load ptr, ptr %date.addr, align 8, !tbaa !3
  %call = call noundef zeroext i1 @_ZNK8QuantLib10SouthKorea14SettlementImpl13isBusinessDayERKNS_4DateE(ptr noundef nonnull align 8 dereferenceable(104) %this1, ptr noundef nonnull align 8 dereferenceable(8) %0)
  br i1 %call, label %if.end, label %if.then

if.then:                                          ; preds = %entry
  store i1 false, ptr %retval, align 1
  br label %return

if.end:                                           ; preds = %entry
  call void @llvm.lifetime.start.p0(i64 4, ptr %d) #2
  %1 = load ptr, ptr %date.addr, align 8, !tbaa !3
  %call2 = call noundef i32 @_ZNK8QuantLib4Date10dayOfMonthEv(ptr noundef nonnull align 8 dereferenceable(8) %1)
  store i32 %call2, ptr %d, align 4, !tbaa !17
  call void @llvm.lifetime.start.p0(i64 4, ptr %w) #2
  %2 = load ptr, ptr %date.addr, align 8, !tbaa !3
  %call3 = call noundef i32 @_ZNK8QuantLib4Date7weekdayEv(ptr noundef nonnull align 8 dereferenceable(8) %2)
  store i32 %call3, ptr %w, align 4, !tbaa !15
  call void @llvm.lifetime.start.p0(i64 4, ptr %m) #2
  %3 = load ptr, ptr %date.addr, align 8, !tbaa !3
  %call4 = call noundef i32 @_ZNK8QuantLib4Date5monthEv(ptr noundef nonnull align 8 dereferenceable(8) %3)
  store i32 %call4, ptr %m, align 4, !tbaa !19
  call void @llvm.lifetime.start.p0(i64 4, ptr %y) #2
  %4 = load ptr, ptr %date.addr, align 8, !tbaa !3
  %call5 = call noundef i32 @_ZNK8QuantLib4Date4yearEv(ptr noundef nonnull align 8 dereferenceable(8) %4)
  store i32 %call5, ptr %y, align 4, !tbaa !17
  %5 = load i32, ptr %d, align 4, !tbaa !17
  %cmp = icmp eq i32 %5, 29
  br i1 %cmp, label %land.lhs.true, label %lor.lhs.false

lor.lhs.false:                                    ; preds = %if.end
  %6 = load i32, ptr %d, align 4, !tbaa !17
  %cmp6 = icmp eq i32 %6, 30
  br i1 %cmp6, label %land.lhs.true, label %lor.lhs.false8

land.lhs.true:                                    ; preds = %lor.lhs.false, %if.end
  %7 = load i32, ptr %w, align 4, !tbaa !15
  %cmp7 = icmp eq i32 %7, 6
  br i1 %cmp7, label %land.lhs.true10, label %lor.lhs.false8

lor.lhs.false8:                                   ; preds = %land.lhs.true, %lor.lhs.false
  %8 = load i32, ptr %d, align 4, !tbaa !17
  %cmp9 = icmp eq i32 %8, 31
  br i1 %cmp9, label %land.lhs.true10, label %if.end13

land.lhs.true10:                                  ; preds = %lor.lhs.false8, %land.lhs.true
  %9 = load i32, ptr %m, align 4, !tbaa !19
  %cmp11 = icmp eq i32 %9, 12
  br i1 %cmp11, label %if.then12, label %if.end13

if.then12:                                        ; preds = %land.lhs.true10
  store i1 false, ptr %retval, align 1
  store i32 1, ptr %cleanup.dest.slot, align 4
  br label %cleanup

if.end13:                                         ; preds = %land.lhs.true10, %lor.lhs.false8
  %10 = load i32, ptr %d, align 4, !tbaa !17
  %cmp14 = icmp eq i32 %10, 6
  br i1 %cmp14, label %land.lhs.true15, label %lor.lhs.false19

land.lhs.true15:                                  ; preds = %if.end13
  %11 = load i32, ptr %m, align 4, !tbaa !19
  %cmp16 = icmp eq i32 %11, 5
  br i1 %cmp16, label %land.lhs.true17, label %lor.lhs.false19

land.lhs.true17:                                  ; preds = %land.lhs.true15
  %12 = load i32, ptr %y, align 4, !tbaa !17
  %cmp18 = icmp eq i32 %12, 2016
  br i1 %cmp18, label %if.then25, label %lor.lhs.false19

lor.lhs.false19:                                  ; preds = %land.lhs.true17, %land.lhs.true15, %if.end13
  %13 = load i32, ptr %d, align 4, !tbaa !17
  %cmp20 = icmp eq i32 %13, 2
  br i1 %cmp20, label %land.lhs.true21, label %if.end26

land.lhs.true21:                                  ; preds = %lor.lhs.false19
  %14 = load i32, ptr %m, align 4, !tbaa !19
  %cmp22 = icmp eq i32 %14, 10
  br i1 %cmp22, label %land.lhs.true23, label %if.end26

land.lhs.true23:                                  ; preds = %land.lhs.true21
  %15 = load i32, ptr %y, align 4, !tbaa !17
  %cmp24 = icmp eq i32 %15, 2017
  br i1 %cmp24, label %if.then25, label %if.end26

if.then25:                                        ; preds = %land.lhs.true23, %land.lhs.true17
  store i1 false, ptr %retval, align 1
  store i32 1, ptr %cleanup.dest.slot, align 4
  br label %cleanup

if.end26:                                         ; preds = %land.lhs.true23, %land.lhs.true21, %lor.lhs.false19
  store i1 true, ptr %retval, align 1
  store i32 1, ptr %cleanup.dest.slot, align 4
  br label %cleanup

cleanup:                                          ; preds = %if.end26, %if.then25, %if.then12
  call void @llvm.lifetime.end.p0(i64 4, ptr %y) #2
  call void @llvm.lifetime.end.p0(i64 4, ptr %m) #2
  call void @llvm.lifetime.end.p0(i64 4, ptr %w) #2
  call void @llvm.lifetime.end.p0(i64 4, ptr %d) #2
  br label %return

return:                                           ; preds = %cleanup, %if.then
  %16 = load i1, ptr %retval, align 1
  ret i1 %16
}