; Function Attrs: mustprogress uwtable
define noundef zeroext i1 @_ZNK8QuantLib10SouthKorea7KrxImpl13isBusinessDayERKNS_4DateE(ptr noundef nonnull align 8 dereferenceable(104) %this, ptr noundef nonnull align 8 dereferenceable(8) %date) unnamed_addr #0 align 2 {
entry:
  %call = tail call noundef zeroext i1 @_ZNK8QuantLib10SouthKorea14SettlementImpl13isBusinessDayERKNS_4DateE(ptr noundef nonnull align 8 dereferenceable(104) %this, ptr noundef nonnull align 8 dereferenceable(8) %date)
  br i1 %call, label %if.end, label %return

if.end:                                           ; preds = %entry
  %0 = load i64, ptr %date, align 8, !tbaa !36
  %call.i.i = tail call noundef i32 @_ZNK8QuantLib4Date4yearEv(ptr noundef nonnull align 8 dereferenceable(8) %date)
  %call2.i.i = tail call noundef i64 @_ZN8QuantLib4Date10yearOffsetEi(i32 noundef %call.i.i)
  %sub.i.i = sub nsw i64 %0, %call2.i.i
  %conv.i.i = trunc i64 %sub.i.i to i32
  %call2.i = tail call noundef i32 @_ZNK8QuantLib4Date5monthEv(ptr noundef nonnull align 8 dereferenceable(8) %date)
  %call3.i = tail call noundef i32 @_ZNK8QuantLib4Date4yearEv(ptr noundef nonnull align 8 dereferenceable(8) %date)
  %call4.i = tail call noundef zeroext i1 @_ZN8QuantLib4Date6isLeapEi(i32 noundef %call3.i)
  %call5.i = tail call noundef i32 @_ZN8QuantLib4Date11monthOffsetENS_5MonthEb(i32 noundef %call2.i, i1 noundef zeroext %call4.i)
  %sub.i = sub nsw i32 %conv.i.i, %call5.i
  %1 = load i64, ptr %date, align 8, !tbaa !36
  %rem.i = srem i64 %1, 7
  %call4 = tail call noundef i32 @_ZNK8QuantLib4Date5monthEv(ptr noundef nonnull align 8 dereferenceable(8) %date)
  %call5 = tail call noundef i32 @_ZNK8QuantLib4Date4yearEv(ptr noundef nonnull align 8 dereferenceable(8) %date)
  %2 = add i32 %sub.i, -29
  %or.cond = icmp ult i32 %2, 2
  %cmp719 = icmp eq i64 %rem.i, 6
  %or.cond1 = and i1 %or.cond, %cmp719
  %cmp9 = icmp eq i32 %sub.i, 31
  %or.cond2 = or i1 %cmp9, %or.cond1
  %cmp11 = icmp eq i32 %call4, 12
  %or.cond3 = and i1 %cmp11, %or.cond2
  br i1 %or.cond3, label %return, label %if.end13

if.end13:                                         ; preds = %if.end
  %cmp14 = icmp eq i32 %sub.i, 6
  %cmp16 = icmp eq i32 %call4, 5
  %or.cond4 = and i1 %cmp14, %cmp16
  %cmp18 = icmp eq i32 %call5, 2016
  %or.cond5 = and i1 %or.cond4, %cmp18
  br i1 %or.cond5, label %return, label %lor.lhs.false19

lor.lhs.false19:                                  ; preds = %if.end13
  %cmp20 = icmp ne i32 %sub.i, 2
  %cmp22 = icmp ne i32 %call4, 10
  %or.cond6.not20 = or i1 %cmp20, %cmp22
  %cmp24 = icmp ne i32 %call5, 2017
  %or.cond7.not = or i1 %or.cond6.not20, %cmp24
  br label %return

return:                                           ; preds = %lor.lhs.false19, %if.end, %if.end13, %entry
  %retval.0 = phi i1 [ false, %entry ], [ false, %if.end ], [ false, %if.end13 ], [ %or.cond7.not, %lor.lhs.false19 ]
  ret i1 %retval.0
}